---
triple:          'arm64-apple-darwin'
binary-path:     '/Users/fuzzy/Desktop/fuzzy_codding/hello'
relocations:
  - { offsetInCU: 0x32FD, offset: 0x32FD, size: 0x8, addend: 0x0, symName: __ZNSt3__124__put_character_sequenceB7v160006IcNS_11char_traitsIcEEEERNS_13basic_ostreamIT_T0_EES7_PKS4_m, symObjAddr: 0xF20, symBinAddr: 0x100001FB0, symSize: 0x1EC }
  - { offsetInCU: 0x4F48, offset: 0x4F48, size: 0x8, addend: 0x0, symName: __ZNSt3__1plB7v160006IcNS_11char_traitsIcEENS_9allocatorIcEEEENS_12basic_stringIT_T0_T1_EEPKS6_OS9_, symObjAddr: 0x13C, symBinAddr: 0x1000011CC, symSize: 0x44 }
  - { offsetInCU: 0x4FA0, offset: 0x4FA0, size: 0x8, addend: 0x0, symName: __ZNSt3__1lsB7v160006INS_11char_traitsIcEEEERNS_13basic_ostreamIcT_EES6_PKc, symObjAddr: 0x1E4, symBinAddr: 0x100001274, symSize: 0x48 }
  - { offsetInCU: 0x4FE6, offset: 0x4FE6, size: 0x8, addend: 0x0, symName: __ZNSt3__14endlB7v160006IcNS_11char_traitsIcEEEERNS_13basic_ostreamIT_T0_EES7_, symObjAddr: 0x258, symBinAddr: 0x1000012E8, symSize: 0x58 }
  - { offsetInCU: 0x6615, offset: 0x6615, size: 0x8, addend: 0x0, symName: __ZNSt3__1rsB7v160006IcNS_11char_traitsIcEEEERNS_13basic_istreamIT_T0_EES7_PS4_, symObjAddr: 0x53C, symBinAddr: 0x1000015CC, symSize: 0x74 }
  - { offsetInCU: 0x6673, offset: 0x6673, size: 0x8, addend: 0x0, symName: __ZNSt3__1lsB7v160006IcNS_11char_traitsIcEENS_9allocatorIcEEEERNS_13basic_ostreamIT_T0_EES9_RKNS_12basic_stringIS6_S7_T1_EE, symObjAddr: 0x754, symBinAddr: 0x1000017E4, symSize: 0x4C }
  - { offsetInCU: 0x66CB, offset: 0x66CB, size: 0x8, addend: 0x0, symName: __ZNSt3__1lsB7v160006INS_11char_traitsIcEEEERNS_13basic_ostreamIcT_EES6_c, symObjAddr: 0x7A0, symBinAddr: 0x100001830, symSize: 0x34 }
  - { offsetInCU: 0x6711, offset: 0x6711, size: 0x8, addend: 0x0, symName: __ZNSt3__118__debug_db_erase_cB7v160006INS_10__list_impIPKcNS_9allocatorIS3_EEEEEEvPT_, symObjAddr: 0x9E0, symBinAddr: 0x100001A70, symSize: 0x10 }
  - { offsetInCU: 0x6742, offset: 0x6742, size: 0x8, addend: 0x0, symName: __ZNSt3__125__debug_db_invalidate_allB7v160006INS_10__list_impIPKcNS_9allocatorIS3_EEEEEEvPT_, symObjAddr: 0xB6C, symBinAddr: 0x100001BFC, symSize: 0x10 }
  - { offsetInCU: 0x67A6, offset: 0x67A6, size: 0x8, addend: 0x0, symName: __ZNSt3__119__libcpp_deallocateB7v160006EPvmm, symObjAddr: 0xCDC, symBinAddr: 0x100001D6C, symSize: 0x30 }
  - { offsetInCU: 0x67EE, offset: 0x67EE, size: 0x8, addend: 0x0, symName: __ZNSt3__127__do_deallocate_handle_sizeB7v160006IJEEEvPvmDpT_, symObjAddr: 0xD0C, symBinAddr: 0x100001D9C, symSize: 0x28 }
  - { offsetInCU: 0x682C, offset: 0x682C, size: 0x8, addend: 0x0, symName: __ZNSt3__124__libcpp_operator_deleteB7v160006IJPvEEEvDpT_, symObjAddr: 0xD34, symBinAddr: 0x100001DC4, symSize: 0x24 }
  - { offsetInCU: 0x6861, offset: 0x6861, size: 0x8, addend: 0x0, symName: __ZNSt3__119__debug_db_insert_cB7v160006INS_12basic_stringIcNS_11char_traitsIcEENS_9allocatorIcEEEEEEvPT_, symObjAddr: 0xE54, symBinAddr: 0x100001EE4, symSize: 0x10 }
  - { offsetInCU: 0x6892, offset: 0x6892, size: 0x8, addend: 0x0, symName: __ZNSt3__115__debug_db_swapB7v160006INS_12basic_stringIcNS_11char_traitsIcEENS_9allocatorIcEEEEEEvPT_S8_, symObjAddr: 0xE9C, symBinAddr: 0x100001F2C, symSize: 0x14 }
  - { offsetInCU: 0x68D1, offset: 0x68D1, size: 0x8, addend: 0x0, symName: __ZNSt3__116__pad_and_outputB7v160006IcNS_11char_traitsIcEEEENS_19ostreambuf_iteratorIT_T0_EES6_PKS4_S8_S8_RNS_8ios_baseES4_, symObjAddr: 0x115C, symBinAddr: 0x1000021EC, symSize: 0x240 }
  - { offsetInCU: 0x69A0, offset: 0x69A0, size: 0x8, addend: 0x0, symName: __ZNSt3__112__to_addressB7v160006IKcEEPT_S3_, symObjAddr: 0x16CC, symBinAddr: 0x10000275C, symSize: 0x14 }
  - { offsetInCU: 0x6A08, offset: 0x6A08, size: 0x8, addend: 0x0, symName: __ZNSt3__19use_facetB7v160006INS_5ctypeIcEEEERKT_RKNS_6localeE, symObjAddr: 0x18DC, symBinAddr: 0x10000296C, symSize: 0x2C }
  - { offsetInCU: 0x6DE8, offset: 0x6DE8, size: 0x8, addend: 0x0, symName: __ZNSt3__118__constexpr_strlenB7v160006EPKc, symObjAddr: 0x1974, symBinAddr: 0x100002A04, symSize: 0x24 }
  - { offsetInCU: 0x6E14, offset: 0x6E14, size: 0x8, addend: 0x0, symName: __ZNSt3__119__debug_db_insert_cB7v160006INS_4listIPKcNS_9allocatorIS3_EEEEEEvPT_, symObjAddr: 0x1A24, symBinAddr: 0x100002AB4, symSize: 0x10 }
  - { offsetInCU: 0x7046, offset: 0x7046, size: 0x8, addend: 0x0, symName: __ZNSt3__116__input_c_stringB7v160006IcNS_11char_traitsIcEEEERNS_13basic_istreamIT_T0_EES7_PS4_m, symObjAddr: 0x1BCC, symBinAddr: 0x100002C5C, symSize: 0x2C0 }
  - { offsetInCU: 0x76B2, offset: 0x76B2, size: 0x8, addend: 0x0, symName: __ZNSt3__117__libcpp_allocateB7v160006Emm, symObjAddr: 0x2444, symBinAddr: 0x1000034D4, symSize: 0x28 }
  - { offsetInCU: 0x76EF, offset: 0x76EF, size: 0x8, addend: 0x0, symName: __ZNSt3__121__libcpp_operator_newB7v160006IJmEEEPvDpT_, symObjAddr: 0x2484, symBinAddr: 0x100003514, symSize: 0x24 }
  - { offsetInCU: 0x77F3, offset: 0x77F3, size: 0x8, addend: 0x0, symName: __ZSt28__throw_bad_array_new_lengthB7v160006v, symObjAddr: 0x2410, symBinAddr: 0x1000034A0, symSize: 0x34 }
  - { offsetInCU: 0x9CBC, offset: 0x9CBC, size: 0x8, addend: 0x0, symName: __Z9recursionPKciii, symObjAddr: 0x0, symBinAddr: 0x100001090, symSize: 0x13C }
  - { offsetInCU: 0x9D12, offset: 0x9D12, size: 0x8, addend: 0x0, symName: __Z13is_PalindromePKc, symObjAddr: 0x180, symBinAddr: 0x100001210, symSize: 0x64 }
  - { offsetInCU: 0x9D3E, offset: 0x9D3E, size: 0x8, addend: 0x0, symName: __ZNSt3__113basic_ostreamIcNS_11char_traitsIcEEElsB7v160006EPFRS3_S4_E, symObjAddr: 0x22C, symBinAddr: 0x1000012BC, symSize: 0x2C }
  - { offsetInCU: 0x9D71, offset: 0x9D71, size: 0x8, addend: 0x0, symName: _main, symObjAddr: 0x2B0, symBinAddr: 0x100001340, symSize: 0x260 }
  - { offsetInCU: 0x9FDF, offset: 0x9FDF, size: 0x8, addend: 0x0, symName: __ZNSt3__14listIPKcNS_9allocatorIS2_EEEC1B7v160006Ev, symObjAddr: 0x510, symBinAddr: 0x1000015A0, symSize: 0x2C }
  - { offsetInCU: 0xA008, offset: 0xA008, size: 0x8, addend: 0x0, symName: __ZNSt3__14listIPKcNS_9allocatorIS2_EEE9push_backERKS2_, symObjAddr: 0x5B0, symBinAddr: 0x100001640, symSize: 0xF4 }
  - { offsetInCU: 0xA05B, offset: 0xA05B, size: 0x8, addend: 0x0, symName: __ZNSt3__14listIPKcNS_9allocatorIS2_EEE5frontB7v160006Ev, symObjAddr: 0x6A4, symBinAddr: 0x100001734, symSize: 0x2C }
  - { offsetInCU: 0xA080, offset: 0xA080, size: 0x8, addend: 0x0, symName: __ZNSt3__14listIPKcNS_9allocatorIS2_EEE9pop_frontEv, symObjAddr: 0x6D0, symBinAddr: 0x100001760, symSize: 0x84 }
  - { offsetInCU: 0xA0D3, offset: 0xA0D3, size: 0x8, addend: 0x0, symName: __ZNSt3__112basic_stringIcNS_11char_traitsIcEENS_9allocatorIcEEE5frontB7v160006Ev, symObjAddr: 0x7D4, symBinAddr: 0x100001864, symSize: 0x24 }
  - { offsetInCU: 0xA0F7, offset: 0xA0F7, size: 0x8, addend: 0x0, symName: __ZNKSt3__112basic_stringIcNS_11char_traitsIcEENS_9allocatorIcEEE6substrB7v160006Emm, symObjAddr: 0x7F8, symBinAddr: 0x100001888, symSize: 0x68 }
  - { offsetInCU: 0xA13A, offset: 0xA13A, size: 0x8, addend: 0x0, symName: __ZNSt3__14listIPKcNS_9allocatorIS2_EEED1Ev, symObjAddr: 0x860, symBinAddr: 0x1000018F0, symSize: 0x2C }
  - { offsetInCU: 0xA166, offset: 0xA166, size: 0x8, addend: 0x0, symName: __ZNSt3__14listIPKcNS_9allocatorIS2_EEED2Ev, symObjAddr: 0x88C, symBinAddr: 0x10000191C, symSize: 0x2C }
  - { offsetInCU: 0xA192, offset: 0xA192, size: 0x8, addend: 0x0, symName: __ZNSt3__110__list_impIPKcNS_9allocatorIS2_EEED2Ev, symObjAddr: 0x8B8, symBinAddr: 0x100001948, symSize: 0x3C }
  - { offsetInCU: 0xA1BD, offset: 0xA1BD, size: 0x8, addend: 0x0, symName: __ZNSt3__110__list_impIPKcNS_9allocatorIS2_EEE5clearEv, symObjAddr: 0x8F4, symBinAddr: 0x100001984, symSize: 0xEC }
  - { offsetInCU: 0xA22B, offset: 0xA22B, size: 0x8, addend: 0x0, symName: __ZNKSt3__110__list_impIPKcNS_9allocatorIS2_EEE5emptyB7v160006Ev, symObjAddr: 0x9FC, symBinAddr: 0x100001A8C, symSize: 0x34 }
  - { offsetInCU: 0xA24F, offset: 0xA24F, size: 0x8, addend: 0x0, symName: __ZNSt3__110__list_impIPKcNS_9allocatorIS2_EEE12__node_allocB7v160006Ev, symObjAddr: 0xA30, symBinAddr: 0x100001AC0, symSize: 0x28 }
  - { offsetInCU: 0xA273, offset: 0xA273, size: 0x8, addend: 0x0, symName: __ZNKSt3__110__list_impIPKcNS_9allocatorIS2_EEE13__end_as_linkB7v160006Ev, symObjAddr: 0xA58, symBinAddr: 0x100001AE8, symSize: 0x44 }
  - { offsetInCU: 0xA298, offset: 0xA298, size: 0x8, addend: 0x0, symName: __ZNSt3__110__list_impIPKcNS_9allocatorIS2_EEE14__unlink_nodesEPNS_16__list_node_baseIS2_PvEES9_, symObjAddr: 0xA9C, symBinAddr: 0x100001B2C, symSize: 0x3C }
  - { offsetInCU: 0xA2CC, offset: 0xA2CC, size: 0x8, addend: 0x0, symName: __ZNSt3__110__list_impIPKcNS_9allocatorIS2_EEE4__szB7v160006Ev, symObjAddr: 0xAD8, symBinAddr: 0x100001B68, symSize: 0x28 }
  - { offsetInCU: 0xA2F0, offset: 0xA2F0, size: 0x8, addend: 0x0, symName: __ZNSt3__116__list_node_baseIPKcPvE9__as_nodeB7v160006Ev, symObjAddr: 0xB00, symBinAddr: 0x100001B90, symSize: 0x24 }
  - { offsetInCU: 0xA315, offset: 0xA315, size: 0x8, addend: 0x0, symName: __ZNSt3__116allocator_traitsINS_9allocatorINS_11__list_nodeIPKcPvEEEEE7destroyB7v160006IS4_vvEEvRS7_PT_, symObjAddr: 0xB24, symBinAddr: 0x100001BB4, symSize: 0x14 }
  - { offsetInCU: 0xA350, offset: 0xA350, size: 0x8, addend: 0x0, symName: __ZNSt3__116allocator_traitsINS_9allocatorINS_11__list_nodeIPKcPvEEEEE10deallocateB7v160006ERS7_PS6_m, symObjAddr: 0xB38, symBinAddr: 0x100001BC8, symSize: 0x34 }
  - { offsetInCU: 0xA391, offset: 0xA391, size: 0x8, addend: 0x0, symName: __ZNKSt3__110__list_impIPKcNS_9allocatorIS2_EEE4__szB7v160006Ev, symObjAddr: 0xB7C, symBinAddr: 0x100001C0C, symSize: 0x28 }
  - { offsetInCU: 0xA3B5, offset: 0xA3B5, size: 0x8, addend: 0x0, symName: __ZNKSt3__117__compressed_pairImNS_9allocatorINS_11__list_nodeIPKcPvEEEEE5firstB7v160006Ev, symObjAddr: 0xBA4, symBinAddr: 0x100001C34, symSize: 0x24 }
  - { offsetInCU: 0xA3DA, offset: 0xA3DA, size: 0x8, addend: 0x0, symName: __ZNKSt3__122__compressed_pair_elemImLi0ELb0EE5__getB7v160006Ev, symObjAddr: 0xBC8, symBinAddr: 0x100001C58, symSize: 0x14 }
  - { offsetInCU: 0xA3FE, offset: 0xA3FE, size: 0x8, addend: 0x0, symName: __ZNSt3__117__compressed_pairImNS_9allocatorINS_11__list_nodeIPKcPvEEEEE6secondB7v160006Ev, symObjAddr: 0xBDC, symBinAddr: 0x100001C6C, symSize: 0x24 }
  - { offsetInCU: 0xA423, offset: 0xA423, size: 0x8, addend: 0x0, symName: __ZNSt3__122__compressed_pair_elemINS_9allocatorINS_11__list_nodeIPKcPvEEEELi1ELb1EE5__getB7v160006Ev, symObjAddr: 0xC00, symBinAddr: 0x100001C90, symSize: 0x14 }
  - { offsetInCU: 0xA448, offset: 0xA448, size: 0x8, addend: 0x0, symName: __ZNSt3__126__list_node_pointer_traitsIPKcPvE26__unsafe_link_pointer_castB7v160006EPNS_16__list_node_baseIS2_S3_EE, symObjAddr: 0xC14, symBinAddr: 0x100001CA4, symSize: 0x14 }
  - { offsetInCU: 0xA46B, offset: 0xA46B, size: 0x8, addend: 0x0, symName: __ZNSt3__116__list_node_baseIPKcPvE6__selfB7v160006Ev, symObjAddr: 0xC28, symBinAddr: 0x100001CB8, symSize: 0x24 }
  - { offsetInCU: 0xA495, offset: 0xA495, size: 0x8, addend: 0x0, symName: __ZNSt3__114pointer_traitsIPNS_16__list_node_baseIPKcPvEEE10pointer_toB7v160006ERS5_, symObjAddr: 0xC4C, symBinAddr: 0x100001CDC, symSize: 0x14 }
  - { offsetInCU: 0xA4B7, offset: 0xA4B7, size: 0x8, addend: 0x0, symName: __ZNSt3__117__compressed_pairImNS_9allocatorINS_11__list_nodeIPKcPvEEEEE5firstB7v160006Ev, symObjAddr: 0xC60, symBinAddr: 0x100001CF0, symSize: 0x24 }
  - { offsetInCU: 0xA4DC, offset: 0xA4DC, size: 0x8, addend: 0x0, symName: __ZNSt3__122__compressed_pair_elemImLi0ELb0EE5__getB7v160006Ev, symObjAddr: 0xC84, symBinAddr: 0x100001D14, symSize: 0x14 }
  - { offsetInCU: 0xA500, offset: 0xA500, size: 0x8, addend: 0x0, symName: __ZNSt3__19allocatorINS_11__list_nodeIPKcPvEEE10deallocateB7v160006EPS5_m, symObjAddr: 0xC98, symBinAddr: 0x100001D28, symSize: 0x44 }
  - { offsetInCU: 0xA541, offset: 0xA541, size: 0x8, addend: 0x0, symName: __ZNSt3__112basic_stringIcNS_11char_traitsIcEENS_9allocatorIcEEEC1B7v160006EOS5_, symObjAddr: 0xD58, symBinAddr: 0x100001DE8, symSize: 0x34 }
  - { offsetInCU: 0xA579, offset: 0xA579, size: 0x8, addend: 0x0, symName: __ZNSt3__112basic_stringIcNS_11char_traitsIcEENS_9allocatorIcEEEC2B7v160006EOS5_, symObjAddr: 0xD8C, symBinAddr: 0x100001E1C, symSize: 0x88 }
  - { offsetInCU: 0xA5B0, offset: 0xA5B0, size: 0x8, addend: 0x0, symName: __ZNSt3__112basic_stringIcNS_11char_traitsIcEENS_9allocatorIcEEE14__default_initB7v160006Ev, symObjAddr: 0xE14, symBinAddr: 0x100001EA4, symSize: 0x40 }
  - { offsetInCU: 0xA5D4, offset: 0xA5D4, size: 0x8, addend: 0x0, symName: __ZNKSt3__112basic_stringIcNS_11char_traitsIcEENS_9allocatorIcEEE9__is_longB7v160006Ev, symObjAddr: 0xE64, symBinAddr: 0x100001EF4, symSize: 0x38 }
  - { offsetInCU: 0xA5F8, offset: 0xA5F8, size: 0x8, addend: 0x0, symName: __ZNSt3__117__compressed_pairINS_12basic_stringIcNS_11char_traitsIcEENS_9allocatorIcEEE5__repES5_E5firstB7v160006Ev, symObjAddr: 0xEB0, symBinAddr: 0x100001F40, symSize: 0x24 }
  - { offsetInCU: 0xA61D, offset: 0xA61D, size: 0x8, addend: 0x0, symName: __ZNSt3__122__compressed_pair_elemINS_12basic_stringIcNS_11char_traitsIcEENS_9allocatorIcEEE5__repELi0ELb0EE5__getB7v160006Ev, symObjAddr: 0xED4, symBinAddr: 0x100001F64, symSize: 0x14 }
  - { offsetInCU: 0xA641, offset: 0xA641, size: 0x8, addend: 0x0, symName: __ZNKSt3__117__compressed_pairINS_12basic_stringIcNS_11char_traitsIcEENS_9allocatorIcEEE5__repES5_E5firstB7v160006Ev, symObjAddr: 0xEE8, symBinAddr: 0x100001F78, symSize: 0x24 }
  - { offsetInCU: 0xA666, offset: 0xA666, size: 0x8, addend: 0x0, symName: __ZNKSt3__122__compressed_pair_elemINS_12basic_stringIcNS_11char_traitsIcEENS_9allocatorIcEEE5__repELi0ELb0EE5__getB7v160006Ev, symObjAddr: 0xF0C, symBinAddr: 0x100001F9C, symSize: 0x14 }
  - { offsetInCU: 0xA68B, offset: 0xA68B, size: 0x8, addend: 0x0, symName: __ZNSt3__111char_traitsIcE6lengthEPKc, symObjAddr: 0x110C, symBinAddr: 0x10000219C, symSize: 0x34 }
  - { offsetInCU: 0xA6CC, offset: 0xA6CC, size: 0x8, addend: 0x0, symName: __ZNKSt3__113basic_ostreamIcNS_11char_traitsIcEEE6sentrycvbB7v160006Ev, symObjAddr: 0x1140, symBinAddr: 0x1000021D0, symSize: 0x1C }
  - { offsetInCU: 0xA6F1, offset: 0xA6F1, size: 0x8, addend: 0x0, symName: __ZNSt3__119ostreambuf_iteratorIcNS_11char_traitsIcEEEC1B7v160006ERNS_13basic_ostreamIcS2_EE, symObjAddr: 0x139C, symBinAddr: 0x10000242C, symSize: 0x34 }
  - { offsetInCU: 0xA728, offset: 0xA728, size: 0x8, addend: 0x0, symName: __ZNKSt3__18ios_base5flagsB7v160006Ev, symObjAddr: 0x13D0, symBinAddr: 0x100002460, symSize: 0x18 }
  - { offsetInCU: 0xA74F, offset: 0xA74F, size: 0x8, addend: 0x0, symName: __ZNKSt3__19basic_iosIcNS_11char_traitsIcEEE4fillB7v160006Ev, symObjAddr: 0x13E8, symBinAddr: 0x100002478, symSize: 0x64 }
  - { offsetInCU: 0xA776, offset: 0xA776, size: 0x8, addend: 0x0, symName: __ZNKSt3__119ostreambuf_iteratorIcNS_11char_traitsIcEEE6failedB7v160006Ev, symObjAddr: 0x144C, symBinAddr: 0x1000024DC, symSize: 0x24 }
  - { offsetInCU: 0xA79A, offset: 0xA79A, size: 0x8, addend: 0x0, symName: __ZNSt3__19basic_iosIcNS_11char_traitsIcEEE8setstateB7v160006Ej, symObjAddr: 0x1470, symBinAddr: 0x100002500, symSize: 0x2C }
  - { offsetInCU: 0xA7CE, offset: 0xA7CE, size: 0x8, addend: 0x0, symName: __ZNKSt3__18ios_base5widthB7v160006Ev, symObjAddr: 0x149C, symBinAddr: 0x10000252C, symSize: 0x18 }
  - { offsetInCU: 0xA7F4, offset: 0xA7F4, size: 0x8, addend: 0x0, symName: __ZNSt3__115basic_streambufIcNS_11char_traitsIcEEE5sputnB7v160006EPKcl, symObjAddr: 0x14B4, symBinAddr: 0x100002544, symSize: 0x3C }
  - { offsetInCU: 0xA835, offset: 0xA835, size: 0x8, addend: 0x0, symName: __ZNSt3__112basic_stringIcNS_11char_traitsIcEENS_9allocatorIcEEEC1B7v160006Emc, symObjAddr: 0x14F0, symBinAddr: 0x100002580, symSize: 0x3C }
  - { offsetInCU: 0xA87B, offset: 0xA87B, size: 0x8, addend: 0x0, symName: __ZNKSt3__112basic_stringIcNS_11char_traitsIcEENS_9allocatorIcEEE4dataB7v160006Ev, symObjAddr: 0x152C, symBinAddr: 0x1000025BC, symSize: 0x28 }
  - { offsetInCU: 0xA8A0, offset: 0xA8A0, size: 0x8, addend: 0x0, symName: __ZNSt3__18ios_base5widthB7v160006El, symObjAddr: 0x1554, symBinAddr: 0x1000025E4, symSize: 0x2C }
  - { offsetInCU: 0xA8E5, offset: 0xA8E5, size: 0x8, addend: 0x0, symName: __ZNSt3__112basic_stringIcNS_11char_traitsIcEENS_9allocatorIcEEEC2B7v160006Emc, symObjAddr: 0x1580, symBinAddr: 0x100002610, symSize: 0x54 }
  - { offsetInCU: 0xA931, offset: 0xA931, size: 0x8, addend: 0x0, symName: __ZNSt3__117__compressed_pairINS_12basic_stringIcNS_11char_traitsIcEENS_9allocatorIcEEE5__repES5_EC1B7v160006INS_18__default_init_tagESA_EEOT_OT0_, symObjAddr: 0x15D4, symBinAddr: 0x100002664, symSize: 0x3C }
  - { offsetInCU: 0xA988, offset: 0xA988, size: 0x8, addend: 0x0, symName: __ZNSt3__117__compressed_pairINS_12basic_stringIcNS_11char_traitsIcEENS_9allocatorIcEEE5__repES5_EC2B7v160006INS_18__default_init_tagESA_EEOT_OT0_, symObjAddr: 0x1610, symBinAddr: 0x1000026A0, symSize: 0x3C }
  - { offsetInCU: 0xA9DF, offset: 0xA9DF, size: 0x8, addend: 0x0, symName: __ZNSt3__122__compressed_pair_elemINS_12basic_stringIcNS_11char_traitsIcEENS_9allocatorIcEEE5__repELi0ELb0EEC2B7v160006ENS_18__default_init_tagE, symObjAddr: 0x164C, symBinAddr: 0x1000026DC, symSize: 0x14 }
  - { offsetInCU: 0xAA13, offset: 0xAA13, size: 0x8, addend: 0x0, symName: __ZNSt3__122__compressed_pair_elemINS_9allocatorIcEELi1ELb1EEC2B7v160006ENS_18__default_init_tagE, symObjAddr: 0x1660, symBinAddr: 0x1000026F0, symSize: 0x2C }
  - { offsetInCU: 0xAA47, offset: 0xAA47, size: 0x8, addend: 0x0, symName: __ZNSt3__19allocatorIcEC2B7v160006Ev, symObjAddr: 0x168C, symBinAddr: 0x10000271C, symSize: 0x2C }
  - { offsetInCU: 0xAA70, offset: 0xAA70, size: 0x8, addend: 0x0, symName: __ZNSt3__116__non_trivial_ifILb1ENS_9allocatorIcEEEC2B7v160006Ev, symObjAddr: 0x16B8, symBinAddr: 0x100002748, symSize: 0x14 }
  - { offsetInCU: 0xAA98, offset: 0xAA98, size: 0x8, addend: 0x0, symName: __ZNKSt3__112basic_stringIcNS_11char_traitsIcEENS_9allocatorIcEEE13__get_pointerB7v160006Ev, symObjAddr: 0x16E0, symBinAddr: 0x100002770, symSize: 0x54 }
  - { offsetInCU: 0xAABC, offset: 0xAABC, size: 0x8, addend: 0x0, symName: __ZNKSt3__112basic_stringIcNS_11char_traitsIcEENS_9allocatorIcEEE18__get_long_pointerB7v160006Ev, symObjAddr: 0x1734, symBinAddr: 0x1000027C4, symSize: 0x28 }
  - { offsetInCU: 0xAAE0, offset: 0xAAE0, size: 0x8, addend: 0x0, symName: __ZNKSt3__112basic_stringIcNS_11char_traitsIcEENS_9allocatorIcEEE19__get_short_pointerB7v160006Ev, symObjAddr: 0x175C, symBinAddr: 0x1000027EC, symSize: 0x28 }
  - { offsetInCU: 0xAB05, offset: 0xAB05, size: 0x8, addend: 0x0, symName: __ZNSt3__114pointer_traitsIPKcE10pointer_toB7v160006ERS1_, symObjAddr: 0x1784, symBinAddr: 0x100002814, symSize: 0x14 }
  - { offsetInCU: 0xAB28, offset: 0xAB28, size: 0x8, addend: 0x0, symName: __ZNSt3__119ostreambuf_iteratorIcNS_11char_traitsIcEEEC2B7v160006ERNS_13basic_ostreamIcS2_EE, symObjAddr: 0x1798, symBinAddr: 0x100002828, symSize: 0x54 }
  - { offsetInCU: 0xAB5F, offset: 0xAB5F, size: 0x8, addend: 0x0, symName: __ZNKSt3__19basic_iosIcNS_11char_traitsIcEEE5rdbufB7v160006Ev, symObjAddr: 0x17EC, symBinAddr: 0x10000287C, symSize: 0x24 }
  - { offsetInCU: 0xAB86, offset: 0xAB86, size: 0x8, addend: 0x0, symName: __ZNKSt3__18ios_base5rdbufB7v160006Ev, symObjAddr: 0x1810, symBinAddr: 0x1000028A0, symSize: 0x18 }
  - { offsetInCU: 0xABAB, offset: 0xABAB, size: 0x8, addend: 0x0, symName: __ZNSt3__111char_traitsIcE11eq_int_typeEii, symObjAddr: 0x1828, symBinAddr: 0x1000028B8, symSize: 0x28 }
  - { offsetInCU: 0xABDC, offset: 0xABDC, size: 0x8, addend: 0x0, symName: __ZNSt3__111char_traitsIcE3eofEv, symObjAddr: 0x1850, symBinAddr: 0x1000028E0, symSize: 0x8 }
  - { offsetInCU: 0xABF0, offset: 0xABF0, size: 0x8, addend: 0x0, symName: __ZNKSt3__19basic_iosIcNS_11char_traitsIcEEE5widenB7v160006Ec, symObjAddr: 0x1858, symBinAddr: 0x1000028E8, symSize: 0x84 }
  - { offsetInCU: 0xAC52, offset: 0xAC52, size: 0x8, addend: 0x0, symName: __ZNKSt3__15ctypeIcE5widenB7v160006Ec, symObjAddr: 0x1908, symBinAddr: 0x100002998, symSize: 0x38 }
  - { offsetInCU: 0xAC86, offset: 0xAC86, size: 0x8, addend: 0x0, symName: __ZNSt3__18ios_base8setstateB7v160006Ej, symObjAddr: 0x1940, symBinAddr: 0x1000029D0, symSize: 0x34 }
  - { offsetInCU: 0xACBC, offset: 0xACBC, size: 0x8, addend: 0x0, symName: __ZNSt3__14listIPKcNS_9allocatorIS2_EEEC2B7v160006Ev, symObjAddr: 0x1998, symBinAddr: 0x100002A28, symSize: 0x3C }
  - { offsetInCU: 0xACE5, offset: 0xACE5, size: 0x8, addend: 0x0, symName: __ZNSt3__110__list_impIPKcNS_9allocatorIS2_EEEC2Ev, symObjAddr: 0x19D4, symBinAddr: 0x100002A64, symSize: 0x50 }
  - { offsetInCU: 0xAD10, offset: 0xAD10, size: 0x8, addend: 0x0, symName: __ZNSt3__116__list_node_baseIPKcPvEC1B7v160006Ev, symObjAddr: 0x1A34, symBinAddr: 0x100002AC4, symSize: 0x2C }
  - { offsetInCU: 0xAD3E, offset: 0xAD3E, size: 0x8, addend: 0x0, symName: __ZNSt3__117__compressed_pairImNS_9allocatorINS_11__list_nodeIPKcPvEEEEEC1B7v160006IiNS_18__default_init_tagEEEOT_OT0_, symObjAddr: 0x1A60, symBinAddr: 0x100002AF0, symSize: 0x3C }
  - { offsetInCU: 0xAD95, offset: 0xAD95, size: 0x8, addend: 0x0, symName: __ZNSt3__116__list_node_baseIPKcPvEC2B7v160006Ev, symObjAddr: 0x1A9C, symBinAddr: 0x100002B2C, symSize: 0x4C }
  - { offsetInCU: 0xADBE, offset: 0xADBE, size: 0x8, addend: 0x0, symName: __ZNSt3__117__compressed_pairImNS_9allocatorINS_11__list_nodeIPKcPvEEEEEC2B7v160006IiNS_18__default_init_tagEEEOT_OT0_, symObjAddr: 0x1AE8, symBinAddr: 0x100002B78, symSize: 0x40 }
  - { offsetInCU: 0xAE15, offset: 0xAE15, size: 0x8, addend: 0x0, symName: __ZNSt3__122__compressed_pair_elemImLi0ELb0EEC2B7v160006IivEEOT_, symObjAddr: 0x1B28, symBinAddr: 0x100002BB8, symSize: 0x24 }
  - { offsetInCU: 0xAE56, offset: 0xAE56, size: 0x8, addend: 0x0, symName: __ZNSt3__122__compressed_pair_elemINS_9allocatorINS_11__list_nodeIPKcPvEEEELi1ELb1EEC2B7v160006ENS_18__default_init_tagE, symObjAddr: 0x1B4C, symBinAddr: 0x100002BDC, symSize: 0x2C }
  - { offsetInCU: 0xAE8A, offset: 0xAE8A, size: 0x8, addend: 0x0, symName: __ZNSt3__19allocatorINS_11__list_nodeIPKcPvEEEC2B7v160006Ev, symObjAddr: 0x1B78, symBinAddr: 0x100002C08, symSize: 0x2C }
  - { offsetInCU: 0xAEB3, offset: 0xAEB3, size: 0x8, addend: 0x0, symName: __ZNSt3__116__non_trivial_ifILb1ENS_9allocatorINS_11__list_nodeIPKcPvEEEEEC2B7v160006Ev, symObjAddr: 0x1BA4, symBinAddr: 0x100002C34, symSize: 0x14 }
  - { offsetInCU: 0xAEDC, offset: 0xAEDC, size: 0x8, addend: 0x0, symName: __ZNSt3__114numeric_limitsIlE3maxB7v160006Ev, symObjAddr: 0x1BB8, symBinAddr: 0x100002C48, symSize: 0x14 }
  - { offsetInCU: 0xAEF0, offset: 0xAEF0, size: 0x8, addend: 0x0, symName: __ZNSt3__123__libcpp_numeric_limitsIlLb1EE3maxB7v160006Ev, symObjAddr: 0x1E8C, symBinAddr: 0x100002F1C, symSize: 0x8 }
  - { offsetInCU: 0xAF91, offset: 0xAF91, size: 0x8, addend: 0x0, symName: __ZNKSt3__113basic_istreamIcNS_11char_traitsIcEEE6sentrycvbB7v160006Ev, symObjAddr: 0x1E94, symBinAddr: 0x100002F24, symSize: 0x1C }
  - { offsetInCU: 0xAFB5, offset: 0xAFB5, size: 0x8, addend: 0x0, symName: __ZNSt3__115basic_streambufIcNS_11char_traitsIcEEE5sgetcB7v160006Ev, symObjAddr: 0x1EB0, symBinAddr: 0x100002F40, symSize: 0x70 }
  - { offsetInCU: 0xAFDA, offset: 0xAFDA, size: 0x8, addend: 0x0, symName: __ZNSt3__111char_traitsIcE12to_char_typeEi, symObjAddr: 0x1F20, symBinAddr: 0x100002FB0, symSize: 0x18 }
  - { offsetInCU: 0xAFFC, offset: 0xAFFC, size: 0x8, addend: 0x0, symName: __ZNKSt3__15ctypeIcE2isB7v160006Ejc, symObjAddr: 0x1F38, symBinAddr: 0x100002FC8, symSize: 0x7C }
  - { offsetInCU: 0xB03E, offset: 0xB03E, size: 0x8, addend: 0x0, symName: __ZNSt3__115basic_streambufIcNS_11char_traitsIcEEE6sbumpcB7v160006Ev, symObjAddr: 0x1FB4, symBinAddr: 0x100003044, symSize: 0x78 }
  - { offsetInCU: 0xB063, offset: 0xB063, size: 0x8, addend: 0x0, symName: __ZNSt3__18ios_base18__setstate_nothrowB7v160006Ej, symObjAddr: 0x202C, symBinAddr: 0x1000030BC, symSize: 0x64 }
  - { offsetInCU: 0xB096, offset: 0xB096, size: 0x8, addend: 0x0, symName: __ZNKSt3__19basic_iosIcNS_11char_traitsIcEEE10exceptionsB7v160006Ev, symObjAddr: 0x2090, symBinAddr: 0x100003120, symSize: 0x24 }
  - { offsetInCU: 0xB0BB, offset: 0xB0BB, size: 0x8, addend: 0x0, symName: __ZNSt3__111char_traitsIcE11to_int_typeEc, symObjAddr: 0x20B4, symBinAddr: 0x100003144, symSize: 0x14 }
  - { offsetInCU: 0xB0DD, offset: 0xB0DD, size: 0x8, addend: 0x0, symName: __Z7isasciii, symObjAddr: 0x20C8, symBinAddr: 0x100003158, symSize: 0x24 }
  - { offsetInCU: 0xB10A, offset: 0xB10A, size: 0x8, addend: 0x0, symName: __ZNKSt3__18ios_base10exceptionsB7v160006Ev, symObjAddr: 0x20EC, symBinAddr: 0x10000317C, symSize: 0x18 }
  - { offsetInCU: 0xB130, offset: 0xB130, size: 0x8, addend: 0x0, symName: __ZNSt3__14listIPKcNS_9allocatorIS2_EEE15__allocate_nodeB7v160006ERNS3_INS_11__list_nodeIS2_PvEEEE, symObjAddr: 0x2104, symBinAddr: 0x100003194, symSize: 0x70 }
  - { offsetInCU: 0xB173, offset: 0xB173, size: 0x8, addend: 0x0, symName: __ZNSt3__116allocator_traitsINS_9allocatorINS_11__list_nodeIPKcPvEEEEE9constructB7v160006IS4_JRKS4_EvEEvRS7_PT_DpOT0_, symObjAddr: 0x2174, symBinAddr: 0x100003204, symSize: 0x34 }
  - { offsetInCU: 0xB1C9, offset: 0xB1C9, size: 0x8, addend: 0x0, symName: __ZNKSt3__110unique_ptrINS_11__list_nodeIPKcPvEENS_22__allocator_destructorINS_9allocatorIS5_EEEEEptB7v160006Ev, symObjAddr: 0x21A8, symBinAddr: 0x100003238, symSize: 0x28 }
  - { offsetInCU: 0xB1EE, offset: 0xB1EE, size: 0x8, addend: 0x0, symName: __ZNSt3__14listIPKcNS_9allocatorIS2_EEE20__link_nodes_at_backEPNS_16__list_node_baseIS2_PvEES9_, symObjAddr: 0x21D0, symBinAddr: 0x100003260, symSize: 0x60 }
  - { offsetInCU: 0xB232, offset: 0xB232, size: 0x8, addend: 0x0, symName: __ZNKSt3__110unique_ptrINS_11__list_nodeIPKcPvEENS_22__allocator_destructorINS_9allocatorIS5_EEEEE3getB7v160006Ev, symObjAddr: 0x2230, symBinAddr: 0x1000032C0, symSize: 0x28 }
  - { offsetInCU: 0xB256, offset: 0xB256, size: 0x8, addend: 0x0, symName: __ZNSt3__111__list_nodeIPKcPvE9__as_linkB7v160006Ev, symObjAddr: 0x2258, symBinAddr: 0x1000032E8, symSize: 0x24 }
  - { offsetInCU: 0xB27A, offset: 0xB27A, size: 0x8, addend: 0x0, symName: __ZNSt3__110unique_ptrINS_11__list_nodeIPKcPvEENS_22__allocator_destructorINS_9allocatorIS5_EEEEE7releaseB7v160006Ev, symObjAddr: 0x227C, symBinAddr: 0x10000330C, symSize: 0x44 }
  - { offsetInCU: 0xB2AE, offset: 0xB2AE, size: 0x8, addend: 0x0, symName: __ZNSt3__110unique_ptrINS_11__list_nodeIPKcPvEENS_22__allocator_destructorINS_9allocatorIS5_EEEEED1B7v160006Ev, symObjAddr: 0x22C0, symBinAddr: 0x100003350, symSize: 0x2C }
  - { offsetInCU: 0xB2D7, offset: 0xB2D7, size: 0x8, addend: 0x0, symName: __ZNSt3__116allocator_traitsINS_9allocatorINS_11__list_nodeIPKcPvEEEEE8allocateB7v160006ERS7_m, symObjAddr: 0x22EC, symBinAddr: 0x10000337C, symSize: 0x2C }
  - { offsetInCU: 0xB30A, offset: 0xB30A, size: 0x8, addend: 0x0, symName: __ZNSt3__122__allocator_destructorINS_9allocatorINS_11__list_nodeIPKcPvEEEEEC1B7v160006ERS7_m, symObjAddr: 0x2318, symBinAddr: 0x1000033A8, symSize: 0x3C }
  - { offsetInCU: 0xB354, offset: 0xB354, size: 0x8, addend: 0x0, symName: __ZNSt3__110unique_ptrINS_11__list_nodeIPKcPvEENS_22__allocator_destructorINS_9allocatorIS5_EEEEEC1B7v160006ILb1EvEEPS5_NS_16__dependent_typeINS_27__unique_ptr_deleter_sfinaeIS9_EEXT_EE20__good_rval_ref_typeE, symObjAddr: 0x2354, symBinAddr: 0x1000033E4, symSize: 0x3C }
  - { offsetInCU: 0xB3A3, offset: 0xB3A3, size: 0x8, addend: 0x0, symName: __ZNSt3__19allocatorINS_11__list_nodeIPKcPvEEE8allocateB7v160006Em, symObjAddr: 0x2390, symBinAddr: 0x100003420, symSize: 0x5C }
  - { offsetInCU: 0xB3E0, offset: 0xB3E0, size: 0x8, addend: 0x0, symName: __ZNSt3__116allocator_traitsINS_9allocatorINS_11__list_nodeIPKcPvEEEEE8max_sizeB7v160006IS7_vEEmRKS7_, symObjAddr: 0x23EC, symBinAddr: 0x10000347C, symSize: 0x24 }
  - { offsetInCU: 0xB40E, offset: 0xB40E, size: 0x8, addend: 0x0, symName: __ZNKSt3__19allocatorINS_11__list_nodeIPKcPvEEE8max_sizeB7v160006Ev, symObjAddr: 0x246C, symBinAddr: 0x1000034FC, symSize: 0x18 }
  - { offsetInCU: 0xB433, offset: 0xB433, size: 0x8, addend: 0x0, symName: __ZNSt3__122__allocator_destructorINS_9allocatorINS_11__list_nodeIPKcPvEEEEEC2B7v160006ERS7_m, symObjAddr: 0x24A8, symBinAddr: 0x100003538, symSize: 0x2C }
  - { offsetInCU: 0xB478, offset: 0xB478, size: 0x8, addend: 0x0, symName: __ZNSt3__110unique_ptrINS_11__list_nodeIPKcPvEENS_22__allocator_destructorINS_9allocatorIS5_EEEEEC2B7v160006ILb1EvEEPS5_NS_16__dependent_typeINS_27__unique_ptr_deleter_sfinaeIS9_EEXT_EE20__good_rval_ref_typeE, symObjAddr: 0x24D4, symBinAddr: 0x100003564, symSize: 0x48 }
  - { offsetInCU: 0xB4C8, offset: 0xB4C8, size: 0x8, addend: 0x0, symName: __ZNSt3__117__compressed_pairIPNS_11__list_nodeIPKcPvEENS_22__allocator_destructorINS_9allocatorIS5_EEEEEC1B7v160006IRS6_SA_EEOT_OT0_, symObjAddr: 0x251C, symBinAddr: 0x1000035AC, symSize: 0x3C }
  - { offsetInCU: 0xB51F, offset: 0xB51F, size: 0x8, addend: 0x0, symName: __ZNSt3__117__compressed_pairIPNS_11__list_nodeIPKcPvEENS_22__allocator_destructorINS_9allocatorIS5_EEEEEC2B7v160006IRS6_SA_EEOT_OT0_, symObjAddr: 0x2558, symBinAddr: 0x1000035E8, symSize: 0x48 }
  - { offsetInCU: 0xB576, offset: 0xB576, size: 0x8, addend: 0x0, symName: __ZNSt3__122__compressed_pair_elemIPNS_11__list_nodeIPKcPvEELi0ELb0EEC2B7v160006IRS6_vEEOT_, symObjAddr: 0x25A0, symBinAddr: 0x100003630, symSize: 0x24 }
  - { offsetInCU: 0xB5B7, offset: 0xB5B7, size: 0x8, addend: 0x0, symName: __ZNSt3__122__compressed_pair_elemINS_22__allocator_destructorINS_9allocatorINS_11__list_nodeIPKcPvEEEEEELi1ELb0EEC2B7v160006IS9_vEEOT_, symObjAddr: 0x25C4, symBinAddr: 0x100003654, symSize: 0x24 }
  - { offsetInCU: 0xB5F8, offset: 0xB5F8, size: 0x8, addend: 0x0, symName: __ZNSt3__19allocatorINS_11__list_nodeIPKcPvEEE9constructB7v160006IS3_JRKS3_EEEvPT_DpOT0_, symObjAddr: 0x25E8, symBinAddr: 0x100003678, symSize: 0x28 }
  - { offsetInCU: 0xB64C, offset: 0xB64C, size: 0x8, addend: 0x0, symName: __ZNKSt3__117__compressed_pairIPNS_11__list_nodeIPKcPvEENS_22__allocator_destructorINS_9allocatorIS5_EEEEE5firstB7v160006Ev, symObjAddr: 0x2610, symBinAddr: 0x1000036A0, symSize: 0x24 }
  - { offsetInCU: 0xB671, offset: 0xB671, size: 0x8, addend: 0x0, symName: __ZNKSt3__122__compressed_pair_elemIPNS_11__list_nodeIPKcPvEELi0ELb0EE5__getB7v160006Ev, symObjAddr: 0x2634, symBinAddr: 0x1000036C4, symSize: 0x14 }
  - { offsetInCU: 0xB695, offset: 0xB695, size: 0x8, addend: 0x0, symName: __ZNSt3__117__compressed_pairIPNS_11__list_nodeIPKcPvEENS_22__allocator_destructorINS_9allocatorIS5_EEEEE5firstB7v160006Ev, symObjAddr: 0x2648, symBinAddr: 0x1000036D8, symSize: 0x24 }
  - { offsetInCU: 0xB6BA, offset: 0xB6BA, size: 0x8, addend: 0x0, symName: __ZNSt3__122__compressed_pair_elemIPNS_11__list_nodeIPKcPvEELi0ELb0EE5__getB7v160006Ev, symObjAddr: 0x266C, symBinAddr: 0x1000036FC, symSize: 0x14 }
  - { offsetInCU: 0xB6DF, offset: 0xB6DF, size: 0x8, addend: 0x0, symName: __ZNSt3__110unique_ptrINS_11__list_nodeIPKcPvEENS_22__allocator_destructorINS_9allocatorIS5_EEEEED2B7v160006Ev, symObjAddr: 0x2680, symBinAddr: 0x100003710, symSize: 0x30 }
  - { offsetInCU: 0xB707, offset: 0xB707, size: 0x8, addend: 0x0, symName: __ZNSt3__110unique_ptrINS_11__list_nodeIPKcPvEENS_22__allocator_destructorINS_9allocatorIS5_EEEEE5resetB7v160006EPS5_, symObjAddr: 0x26B0, symBinAddr: 0x100003740, symSize: 0x78 }
  - { offsetInCU: 0xB749, offset: 0xB749, size: 0x8, addend: 0x0, symName: __ZNSt3__117__compressed_pairIPNS_11__list_nodeIPKcPvEENS_22__allocator_destructorINS_9allocatorIS5_EEEEE6secondB7v160006Ev, symObjAddr: 0x2728, symBinAddr: 0x1000037B8, symSize: 0x28 }
  - { offsetInCU: 0xB76D, offset: 0xB76D, size: 0x8, addend: 0x0, symName: __ZNSt3__122__allocator_destructorINS_9allocatorINS_11__list_nodeIPKcPvEEEEEclB7v160006EPS6_, symObjAddr: 0x2750, symBinAddr: 0x1000037E0, symSize: 0x34 }
  - { offsetInCU: 0xB7A0, offset: 0xB7A0, size: 0x8, addend: 0x0, symName: __ZNSt3__122__compressed_pair_elemINS_22__allocator_destructorINS_9allocatorINS_11__list_nodeIPKcPvEEEEEELi1ELb0EE5__getB7v160006Ev, symObjAddr: 0x2784, symBinAddr: 0x100003814, symSize: 0x14 }
  - { offsetInCU: 0xB7C4, offset: 0xB7C4, size: 0x8, addend: 0x0, symName: __ZNSt3__112basic_stringIcNS_11char_traitsIcEENS_9allocatorIcEEE13__get_pointerB7v160006Ev, symObjAddr: 0x2798, symBinAddr: 0x100003828, symSize: 0x54 }
  - { offsetInCU: 0xB7E8, offset: 0xB7E8, size: 0x8, addend: 0x0, symName: __ZNSt3__112basic_stringIcNS_11char_traitsIcEENS_9allocatorIcEEE18__get_long_pointerB7v160006Ev, symObjAddr: 0x27EC, symBinAddr: 0x10000387C, symSize: 0x28 }
  - { offsetInCU: 0xB80C, offset: 0xB80C, size: 0x8, addend: 0x0, symName: __ZNSt3__112basic_stringIcNS_11char_traitsIcEENS_9allocatorIcEEE19__get_short_pointerB7v160006Ev, symObjAddr: 0x2814, symBinAddr: 0x1000038A4, symSize: 0x28 }
  - { offsetInCU: 0xB831, offset: 0xB831, size: 0x8, addend: 0x0, symName: __ZNSt3__114pointer_traitsIPcE10pointer_toB7v160006ERc, symObjAddr: 0x283C, symBinAddr: 0x1000038CC, symSize: 0x14 }
  - { offsetInCU: 0xB854, offset: 0xB854, size: 0x8, addend: 0x0, symName: __ZNSt3__19allocatorIcEC1B7v160006Ev, symObjAddr: 0x2850, symBinAddr: 0x1000038E0, symSize: 0x2C }
  - { offsetInCU: 0xB87C, offset: 0xB87C, size: 0x8, addend: 0x0, symName: __ZNKSt3__112basic_stringIcNS_11char_traitsIcEENS_9allocatorIcEEE4sizeB7v160006Ev, symObjAddr: 0x287C, symBinAddr: 0x10000390C, symSize: 0x54 }
  - { offsetInCU: 0xB8A0, offset: 0xB8A0, size: 0x8, addend: 0x0, symName: __ZNKSt3__112basic_stringIcNS_11char_traitsIcEENS_9allocatorIcEEE15__get_long_sizeB7v160006Ev, symObjAddr: 0x28D0, symBinAddr: 0x100003960, symSize: 0x28 }
  - { offsetInCU: 0xB8C4, offset: 0xB8C4, size: 0x8, addend: 0x0, symName: __ZNKSt3__112basic_stringIcNS_11char_traitsIcEENS_9allocatorIcEEE16__get_short_sizeB7v160006Ev, symObjAddr: 0x28F8, symBinAddr: 0x100003988, symSize: 0x34 }
...
